---
triple:          'arm64-apple-darwin'
binary-path:     "/Users/minsu/백준/build/다이얼"
relocations:
  - { offsetInCU: 0x49, offset: 0x49, size: 0x8, addend: 0x0, symName: __ZNSt3__1L19piecewise_constructE, symObjAddr: 0x42F0, symBinAddr: 0x100007CC4, symSize: 0x0 }
  - { offsetInCU: 0x6419, offset: 0x6419, size: 0x8, addend: 0x0, symName: __ZNSt3__17advanceB7v160006INS_21__tree_const_iteratorINS_12__value_typeIciEEPNS_11__tree_nodeIS3_PvEElEEllvEEvRT_T0_, symObjAddr: 0x20A4, symBinAddr: 0x100005814, symSize: 0x50 }
  - { offsetInCU: 0x839A, offset: 0x839A, size: 0x8, addend: 0x0, symName: __ZNSt3__1rsB7v160006IcNS_11char_traitsIcEENS_9allocatorIcEEEERNS_13basic_istreamIT_T0_EES9_RNS_12basic_stringIS6_S7_T1_EE, symObjAddr: 0x3BC, symBinAddr: 0x100003B2C, symSize: 0x31C }
  - { offsetInCU: 0x8469, offset: 0x8469, size: 0x8, addend: 0x0, symName: __ZNSt3__1neB7v160006IPcEEbRKNS_11__wrap_iterIT_EES6_, symObjAddr: 0x84C, symBinAddr: 0x100003FBC, symSize: 0x34 }
  - { offsetInCU: 0x84AC, offset: 0x84AC, size: 0x8, addend: 0x0, symName: __ZNSt3__14endlB7v160006IcNS_11char_traitsIcEEEERNS_13basic_ostreamIT_T0_EES7_, symObjAddr: 0x8E4, symBinAddr: 0x100004054, symSize: 0x58 }
  - { offsetInCU: 0x84EC, offset: 0x84EC, size: 0x8, addend: 0x0, symName: __ZNSt3__1eqB7v160006IPcEEbRKNS_11__wrap_iterIT_EES6_, symObjAddr: 0x968, symBinAddr: 0x1000040D8, symSize: 0x48 }
  - { offsetInCU: 0x852F, offset: 0x852F, size: 0x8, addend: 0x0, symName: __ZNSt3__119__debug_db_insert_cB7v160006INS_12basic_stringIcNS_11char_traitsIcEENS_9allocatorIcEEEEEEvPT_, symObjAddr: 0xA64, symBinAddr: 0x1000041D4, symSize: 0x10 }
  - { offsetInCU: 0x85B7, offset: 0x85B7, size: 0x8, addend: 0x0, symName: __ZNSt3__1eqB7v160006ERKNS_21__tree_const_iteratorINS_12__value_typeIciEEPNS_11__tree_nodeIS2_PvEElEES9_, symObjAddr: 0x1A1C, symBinAddr: 0x10000518C, symSize: 0x30 }
  - { offsetInCU: 0x85F4, offset: 0x85F4, size: 0x8, addend: 0x0, symName: __ZNSt3__14nextB7v160006INS_21__tree_const_iteratorINS_12__value_typeIciEEPNS_11__tree_nodeIS3_PvEElEEEENS_9enable_ifIXsr25__is_cpp17_input_iteratorIT_EE5valueESA_E4typeESA_NS_15iterator_traitsISA_E15difference_typeE, symObjAddr: 0x1D8C, symBinAddr: 0x1000054FC, symSize: 0x50 }
  - { offsetInCU: 0x8637, offset: 0x8637, size: 0x8, addend: 0x0, symName: __ZNSt3__17launderB7v160006IKNS_4pairIKciEEEEPT_S6_, symObjAddr: 0x1EF8, symBinAddr: 0x100005668, symSize: 0x24 }
  - { offsetInCU: 0x866E, offset: 0x866E, size: 0x8, addend: 0x0, symName: __ZNSt3__19__launderB7v160006IKNS_4pairIKciEEEEPT_S6_, symObjAddr: 0x1F1C, symBinAddr: 0x10000568C, symSize: 0x14 }
  - { offsetInCU: 0x86A5, offset: 0x86A5, size: 0x8, addend: 0x0, symName: __ZNSt3__116__tree_prev_iterB7v160006IPNS_16__tree_node_baseIPvEEPNS_15__tree_end_nodeIS4_EEEET_T0_, symObjAddr: 0x1F30, symBinAddr: 0x1000056A0, symSize: 0xA4 }
  - { offsetInCU: 0x86F1, offset: 0x86F1, size: 0x8, addend: 0x0, symName: __ZNSt3__110__tree_maxB7v160006IPNS_16__tree_node_baseIPvEEEET_S5_, symObjAddr: 0x1FD4, symBinAddr: 0x100005744, symSize: 0x40 }
  - { offsetInCU: 0x8726, offset: 0x8726, size: 0x8, addend: 0x0, symName: __ZNSt3__120__tree_is_left_childB7v160006IPNS_16__tree_node_baseIPvEEEEbT_, symObjAddr: 0x2014, symBinAddr: 0x100005784, symSize: 0x2C }
  - { offsetInCU: 0x875B, offset: 0x875B, size: 0x8, addend: 0x0, symName: __ZNSt3__121__convert_to_integralB7v160006El, symObjAddr: 0x20F4, symBinAddr: 0x100005864, symSize: 0x14 }
  - { offsetInCU: 0x8787, offset: 0x8787, size: 0x8, addend: 0x0, symName: __ZNSt3__19__advanceB7v160006INS_21__tree_const_iteratorINS_12__value_typeIciEEPNS_11__tree_nodeIS3_PvEElEEEEvRT_NS_15iterator_traitsIS9_E15difference_typeENS_26bidirectional_iterator_tagE, symObjAddr: 0x2108, symBinAddr: 0x100005878, symSize: 0xA4 }
  - { offsetInCU: 0x87D0, offset: 0x87D0, size: 0x8, addend: 0x0, symName: __ZNSt3__116__tree_next_iterB7v160006IPNS_15__tree_end_nodeIPNS_16__tree_node_baseIPvEEEES5_EET_T0_, symObjAddr: 0x21E4, symBinAddr: 0x100005954, symSize: 0x80 }
  - { offsetInCU: 0x880E, offset: 0x880E, size: 0x8, addend: 0x0, symName: __ZNSt3__110__tree_minB7v160006IPNS_16__tree_node_baseIPvEEEET_S5_, symObjAddr: 0x2264, symBinAddr: 0x1000059D4, symSize: 0x40 }
  - { offsetInCU: 0x8861, offset: 0x8861, size: 0x8, addend: 0x0, symName: __ZNSt3__117__libcpp_allocateB7v160006Emm, symObjAddr: 0x250C, symBinAddr: 0x100005C7C, symSize: 0x60 }
  - { offsetInCU: 0x88BB, offset: 0x88BB, size: 0x8, addend: 0x0, symName: __ZNSt3__124__is_overaligned_for_newB7v160006Em, symObjAddr: 0x2584, symBinAddr: 0x100005CF4, symSize: 0x20 }
  - { offsetInCU: 0x88E9, offset: 0x88E9, size: 0x8, addend: 0x0, symName: __ZNSt3__121__libcpp_operator_newB7v160006IJmSt11align_val_tEEEPvDpT_, symObjAddr: 0x25A4, symBinAddr: 0x100005D14, symSize: 0x2C }
  - { offsetInCU: 0x8936, offset: 0x8936, size: 0x8, addend: 0x0, symName: __ZNSt3__121__libcpp_operator_newB7v160006IJmEEEPvDpT_, symObjAddr: 0x25D0, symBinAddr: 0x100005D40, symSize: 0x24 }
  - { offsetInCU: 0x896F, offset: 0x896F, size: 0x8, addend: 0x0, symName: __ZNSt3__17launderB7v160006INS_4pairIKciEEEEPT_S5_, symObjAddr: 0x278C, symBinAddr: 0x100005EFC, symSize: 0x24 }
  - { offsetInCU: 0x89A6, offset: 0x89A6, size: 0x8, addend: 0x0, symName: __ZNSt3__19__launderB7v160006INS_4pairIKciEEEEPT_S5_, symObjAddr: 0x27B0, symBinAddr: 0x100005F20, symSize: 0x14 }
  - { offsetInCU: 0x89DD, offset: 0x89DD, size: 0x8, addend: 0x0, symName: __ZNSt3__127__tree_balance_after_insertB7v160006IPNS_16__tree_node_baseIPvEEEEvT_S5_, symObjAddr: 0x2838, symBinAddr: 0x100005FA8, symSize: 0x27C }
  - { offsetInCU: 0x8A59, offset: 0x8A59, size: 0x8, addend: 0x0, symName: __ZNSt3__118__tree_left_rotateB7v160006IPNS_16__tree_node_baseIPvEEEEvT_, symObjAddr: 0x2ADC, symBinAddr: 0x10000624C, symSize: 0xD8 }
  - { offsetInCU: 0x8A9B, offset: 0x8A9B, size: 0x8, addend: 0x0, symName: __ZNSt3__119__tree_right_rotateB7v160006IPNS_16__tree_node_baseIPvEEEEvT_, symObjAddr: 0x2BB4, symBinAddr: 0x100006324, symSize: 0xCC }
  - { offsetInCU: 0x8ADD, offset: 0x8ADD, size: 0x8, addend: 0x0, symName: __ZNSt3__119__libcpp_deallocateB7v160006EPvmm, symObjAddr: 0x2EDC, symBinAddr: 0x10000664C, symSize: 0x60 }
  - { offsetInCU: 0x8B42, offset: 0x8B42, size: 0x8, addend: 0x0, symName: __ZNSt3__127__do_deallocate_handle_sizeB7v160006IJSt11align_val_tEEEvPvmDpT_, symObjAddr: 0x2F3C, symBinAddr: 0x1000066AC, symSize: 0x30 }
  - { offsetInCU: 0x8B95, offset: 0x8B95, size: 0x8, addend: 0x0, symName: __ZNSt3__127__do_deallocate_handle_sizeB7v160006IJEEEvPvmDpT_, symObjAddr: 0x2F6C, symBinAddr: 0x1000066DC, symSize: 0x28 }
  - { offsetInCU: 0x8BD3, offset: 0x8BD3, size: 0x8, addend: 0x0, symName: __ZNSt3__124__libcpp_operator_deleteB7v160006IJPvSt11align_val_tEEEvDpT_, symObjAddr: 0x2F94, symBinAddr: 0x100006704, symSize: 0x2C }
  - { offsetInCU: 0x8C1C, offset: 0x8C1C, size: 0x8, addend: 0x0, symName: __ZNSt3__124__libcpp_operator_deleteB7v160006IJPvEEEvDpT_, symObjAddr: 0x2FC0, symBinAddr: 0x100006730, symSize: 0x24 }
  - { offsetInCU: 0x93C5, offset: 0x93C5, size: 0x8, addend: 0x0, symName: __ZNSt3__19use_facetB7v160006INS_5ctypeIcEEEERKT_RKNS_6localeE, symObjAddr: 0x3304, symBinAddr: 0x100006A74, symSize: 0x2C }
  - { offsetInCU: 0x97A5, offset: 0x97A5, size: 0x8, addend: 0x0, symName: __ZNSt3__125__debug_db_invalidate_allB7v160006INS_12basic_stringIcNS_11char_traitsIcEENS_9allocatorIcEEEEEEvPT_, symObjAddr: 0x35E0, symBinAddr: 0x100006D50, symSize: 0x10 }
  - { offsetInCU: 0x9A2C, offset: 0x9A2C, size: 0x8, addend: 0x0, symName: __ZNSt3__116forward_as_tupleB7v160006IJRKcEEENS_5tupleIJDpOT_EEES6_, symObjAddr: 0x3AF0, symBinAddr: 0x100007260, symSize: 0x2C }
  - { offsetInCU: 0x9A65, offset: 0x9A65, size: 0x8, addend: 0x0, symName: __ZNSt3__116forward_as_tupleB7v160006IJEEENS_5tupleIJDpOT_EEES4_, symObjAddr: 0x3B1C, symBinAddr: 0x10000728C, symSize: 0x4 }
  - { offsetInCU: 0x9A94, offset: 0x9A94, size: 0x8, addend: 0x0, symName: __ZNSt3__13getB7v160006ILm0EJRKcEEERNS_13tuple_elementIXT_ENS_5tupleIJDpT0_EEEE4typeERS7_, symObjAddr: 0x3DBC, symBinAddr: 0x10000752C, symSize: 0x24 }
  - { offsetInCU: 0x9CAC, offset: 0x9CAC, size: 0x8, addend: 0x0, symName: __ZSt28__throw_bad_array_new_lengthB7v160006v, symObjAddr: 0x24D8, symBinAddr: 0x100005C48, symSize: 0x34 }
  - { offsetInCU: 0xC78A, offset: 0xC78A, size: 0x8, addend: 0x0, symName: _main, symObjAddr: 0x0, symBinAddr: 0x100003770, symSize: 0x320 }
  - { offsetInCU: 0xC8DA, offset: 0xC8DA, size: 0x8, addend: 0x0, symName: __ZNSt3__19basic_iosIcNS_11char_traitsIcEEE3tieB7v160006EPNS_13basic_ostreamIcS2_EE, symObjAddr: 0x320, symBinAddr: 0x100003A90, symSize: 0x2C }
  - { offsetInCU: 0xC920, offset: 0xC920, size: 0x8, addend: 0x0, symName: __ZNSt3__112basic_stringIcNS_11char_traitsIcEENS_9allocatorIcEEEC1B7v160006Ev, symObjAddr: 0x34C, symBinAddr: 0x100003ABC, symSize: 0x2C }
  - { offsetInCU: 0xC94A, offset: 0xC94A, size: 0x8, addend: 0x0, symName: __ZNSt3__13mapIciNS_4lessIcEENS_9allocatorINS_4pairIKciEEEEEC1B7v160006ESt16initializer_listIS6_ERKS2_, symObjAddr: 0x378, symBinAddr: 0x100003AE8, symSize: 0x44 }
  - { offsetInCU: 0xC992, offset: 0xC992, size: 0x8, addend: 0x0, symName: __ZNKSt3__112basic_stringIcNS_11char_traitsIcEENS_9allocatorIcEEE6lengthB7v160006Ev, symObjAddr: 0x6D8, symBinAddr: 0x100003E48, symSize: 0x24 }
  - { offsetInCU: 0xC9B8, offset: 0xC9B8, size: 0x8, addend: 0x0, symName: __ZNSt3__13mapIciNS_4lessIcEENS_9allocatorINS_4pairIKciEEEEEixERS5_, symObjAddr: 0x6FC, symBinAddr: 0x100003E6C, symSize: 0x80 }
  - { offsetInCU: 0xC9EF, offset: 0xC9EF, size: 0x8, addend: 0x0, symName: __ZNSt3__112basic_stringIcNS_11char_traitsIcEENS_9allocatorIcEEEixB7v160006Em, symObjAddr: 0x77C, symBinAddr: 0x100003EEC, symSize: 0x30 }
  - { offsetInCU: 0xCA24, offset: 0xCA24, size: 0x8, addend: 0x0, symName: __ZNSt3__112basic_stringIcNS_11char_traitsIcEENS_9allocatorIcEEE5beginB7v160006Ev, symObjAddr: 0x7AC, symBinAddr: 0x100003F1C, symSize: 0x4C }
  - { offsetInCU: 0xCA4A, offset: 0xCA4A, size: 0x8, addend: 0x0, symName: __ZNSt3__112basic_stringIcNS_11char_traitsIcEENS_9allocatorIcEEE3endB7v160006Ev, symObjAddr: 0x7F8, symBinAddr: 0x100003F68, symSize: 0x54 }
  - { offsetInCU: 0xCA70, offset: 0xCA70, size: 0x8, addend: 0x0, symName: __ZNKSt3__111__wrap_iterIPcEdeB7v160006Ev, symObjAddr: 0x880, symBinAddr: 0x100003FF0, symSize: 0x18 }
  - { offsetInCU: 0xCA96, offset: 0xCA96, size: 0x8, addend: 0x0, symName: __ZNSt3__111__wrap_iterIPcEppB7v160006Ev, symObjAddr: 0x898, symBinAddr: 0x100004008, symSize: 0x20 }
  - { offsetInCU: 0xCABC, offset: 0xCABC, size: 0x8, addend: 0x0, symName: __ZNSt3__113basic_ostreamIcNS_11char_traitsIcEEElsB7v160006EPFRS3_S4_E, symObjAddr: 0x8B8, symBinAddr: 0x100004028, symSize: 0x2C }
  - { offsetInCU: 0xCAF0, offset: 0xCAF0, size: 0x8, addend: 0x0, symName: __ZNSt3__13mapIciNS_4lessIcEENS_9allocatorINS_4pairIKciEEEEED1B7v160006Ev, symObjAddr: 0x93C, symBinAddr: 0x1000040AC, symSize: 0x2C }
  - { offsetInCU: 0xCB1A, offset: 0xCB1A, size: 0x8, addend: 0x0, symName: __ZNKSt3__111__wrap_iterIPcE4baseB7v160006Ev, symObjAddr: 0x9B0, symBinAddr: 0x100004120, symSize: 0x18 }
  - { offsetInCU: 0xCB40, offset: 0xCB40, size: 0x8, addend: 0x0, symName: __ZNSt3__112basic_stringIcNS_11char_traitsIcEENS_9allocatorIcEEEC2B7v160006Ev, symObjAddr: 0x9C8, symBinAddr: 0x100004138, symSize: 0x54 }
  - { offsetInCU: 0xCB70, offset: 0xCB70, size: 0x8, addend: 0x0, symName: __ZNSt3__117__compressed_pairINS_12basic_stringIcNS_11char_traitsIcEENS_9allocatorIcEEE5__repES5_EC1B7v160006INS_18__default_init_tagESA_EEOT_OT0_, symObjAddr: 0xA1C, symBinAddr: 0x10000418C, symSize: 0x3C }
  - { offsetInCU: 0xCBC8, offset: 0xCBC8, size: 0x8, addend: 0x0, symName: __ZNSt3__112basic_stringIcNS_11char_traitsIcEENS_9allocatorIcEEE14__default_initB7v160006Ev, symObjAddr: 0xA74, symBinAddr: 0x1000041E4, symSize: 0x40 }
  - { offsetInCU: 0xCBEE, offset: 0xCBEE, size: 0x8, addend: 0x0, symName: __ZNSt3__117__compressed_pairINS_12basic_stringIcNS_11char_traitsIcEENS_9allocatorIcEEE5__repES5_EC2B7v160006INS_18__default_init_tagESA_EEOT_OT0_, symObjAddr: 0xAB4, symBinAddr: 0x100004224, symSize: 0x3C }
  - { offsetInCU: 0xCC46, offset: 0xCC46, size: 0x8, addend: 0x0, symName: __ZNSt3__122__compressed_pair_elemINS_12basic_stringIcNS_11char_traitsIcEENS_9allocatorIcEEE5__repELi0ELb0EEC2B7v160006ENS_18__default_init_tagE, symObjAddr: 0xAF0, symBinAddr: 0x100004260, symSize: 0x14 }
  - { offsetInCU: 0xCC7A, offset: 0xCC7A, size: 0x8, addend: 0x0, symName: __ZNSt3__122__compressed_pair_elemINS_9allocatorIcEELi1ELb1EEC2B7v160006ENS_18__default_init_tagE, symObjAddr: 0xB04, symBinAddr: 0x100004274, symSize: 0x2C }
  - { offsetInCU: 0xCCAE, offset: 0xCCAE, size: 0x8, addend: 0x0, symName: __ZNSt3__19allocatorIcEC2B7v160006Ev, symObjAddr: 0xB30, symBinAddr: 0x1000042A0, symSize: 0x2C }
  - { offsetInCU: 0xCCD8, offset: 0xCCD8, size: 0x8, addend: 0x0, symName: __ZNSt3__116__non_trivial_ifILb1ENS_9allocatorIcEEEC2B7v160006Ev, symObjAddr: 0xB5C, symBinAddr: 0x1000042CC, symSize: 0x14 }
  - { offsetInCU: 0xCD02, offset: 0xCD02, size: 0x8, addend: 0x0, symName: __ZNSt3__117__compressed_pairINS_12basic_stringIcNS_11char_traitsIcEENS_9allocatorIcEEE5__repES5_E5firstB7v160006Ev, symObjAddr: 0xB70, symBinAddr: 0x1000042E0, symSize: 0x24 }
  - { offsetInCU: 0xCD28, offset: 0xCD28, size: 0x8, addend: 0x0, symName: __ZNSt3__122__compressed_pair_elemINS_12basic_stringIcNS_11char_traitsIcEENS_9allocatorIcEEE5__repELi0ELb0EE5__getB7v160006Ev, symObjAddr: 0xB94, symBinAddr: 0x100004304, symSize: 0x14 }
  - { offsetInCU: 0xCD4E, offset: 0xCD4E, size: 0x8, addend: 0x0, symName: __ZNSt3__13mapIciNS_4lessIcEENS_9allocatorINS_4pairIKciEEEEEC2B7v160006ESt16initializer_listIS6_ERKS2_, symObjAddr: 0xBA8, symBinAddr: 0x100004318, symSize: 0xA4 }
  - { offsetInCU: 0xCD96, offset: 0xCD96, size: 0x8, addend: 0x0, symName: __ZNSt3__119__map_value_compareIcNS_12__value_typeIciEENS_4lessIcEELb1EEC1B7v160006ES4_, symObjAddr: 0xC4C, symBinAddr: 0x1000043BC, symSize: 0x2C }
  - { offsetInCU: 0xCDCF, offset: 0xCDCF, size: 0x8, addend: 0x0, symName: __ZNSt3__16__treeINS_12__value_typeIciEENS_19__map_value_compareIcS2_NS_4lessIcEELb1EEENS_9allocatorIS2_EEEC1ERKS6_, symObjAddr: 0xC78, symBinAddr: 0x1000043E8, symSize: 0x34 }
  - { offsetInCU: 0xCE0A, offset: 0xCE0A, size: 0x8, addend: 0x0, symName: __ZNSt3__13mapIciNS_4lessIcEENS_9allocatorINS_4pairIKciEEEEE6insertB7v160006IPKS6_EEvT_SC_, symObjAddr: 0xCAC, symBinAddr: 0x10000441C, symSize: 0x8C }
  - { offsetInCU: 0xCE74, offset: 0xCE74, size: 0x8, addend: 0x0, symName: __ZNKSt16initializer_listINSt3__14pairIKciEEE5beginB7v160006Ev, symObjAddr: 0xD38, symBinAddr: 0x1000044A8, symSize: 0x18 }
  - { offsetInCU: 0xCE9A, offset: 0xCE9A, size: 0x8, addend: 0x0, symName: __ZNKSt16initializer_listINSt3__14pairIKciEEE3endB7v160006Ev, symObjAddr: 0xD50, symBinAddr: 0x1000044C0, symSize: 0x20 }
  - { offsetInCU: 0xCEC0, offset: 0xCEC0, size: 0x8, addend: 0x0, symName: __ZNSt3__16__treeINS_12__value_typeIciEENS_19__map_value_compareIcS2_NS_4lessIcEELb1EEENS_9allocatorIS2_EEED1Ev, symObjAddr: 0xD70, symBinAddr: 0x1000044E0, symSize: 0x2C }
  - { offsetInCU: 0xCEEC, offset: 0xCEEC, size: 0x8, addend: 0x0, symName: __ZNSt3__119__map_value_compareIcNS_12__value_typeIciEENS_4lessIcEELb1EEC2B7v160006ES4_, symObjAddr: 0xD9C, symBinAddr: 0x10000450C, symSize: 0x14 }
  - { offsetInCU: 0xCF25, offset: 0xCF25, size: 0x8, addend: 0x0, symName: __ZNSt3__16__treeINS_12__value_typeIciEENS_19__map_value_compareIcS2_NS_4lessIcEELb1EEENS_9allocatorIS2_EEEC2ERKS6_, symObjAddr: 0xDB0, symBinAddr: 0x100004520, symSize: 0x7C }
  - { offsetInCU: 0xCF60, offset: 0xCF60, size: 0x8, addend: 0x0, symName: __ZNSt3__117__compressed_pairINS_15__tree_end_nodeIPNS_16__tree_node_baseIPvEEEENS_9allocatorINS_11__tree_nodeINS_12__value_typeIciEES3_EEEEEC1B7v160006ILb1EvEEv, symObjAddr: 0xE2C, symBinAddr: 0x10000459C, symSize: 0x2C }
  - { offsetInCU: 0xCF9B, offset: 0xCF9B, size: 0x8, addend: 0x0, symName: __ZNSt3__117__compressed_pairImNS_19__map_value_compareIcNS_12__value_typeIciEENS_4lessIcEELb1EEEEC1B7v160006IiRKS6_EEOT_OT0_, symObjAddr: 0xE58, symBinAddr: 0x1000045C8, symSize: 0x3C }
  - { offsetInCU: 0xCFF3, offset: 0xCFF3, size: 0x8, addend: 0x0, symName: __ZNSt3__16__treeINS_12__value_typeIciEENS_19__map_value_compareIcS2_NS_4lessIcEELb1EEENS_9allocatorIS2_EEE10__end_nodeB7v160006Ev, symObjAddr: 0xE94, symBinAddr: 0x100004604, symSize: 0x2C }
  - { offsetInCU: 0xD019, offset: 0xD019, size: 0x8, addend: 0x0, symName: __ZNSt3__16__treeINS_12__value_typeIciEENS_19__map_value_compareIcS2_NS_4lessIcEELb1EEENS_9allocatorIS2_EEE12__begin_nodeB7v160006Ev, symObjAddr: 0xEC0, symBinAddr: 0x100004630, symSize: 0x14 }
  - { offsetInCU: 0xD03F, offset: 0xD03F, size: 0x8, addend: 0x0, symName: __ZNSt3__117__compressed_pairINS_15__tree_end_nodeIPNS_16__tree_node_baseIPvEEEENS_9allocatorINS_11__tree_nodeINS_12__value_typeIciEES3_EEEEEC2B7v160006ILb1EvEEv, symObjAddr: 0xED4, symBinAddr: 0x100004644, symSize: 0x34 }
  - { offsetInCU: 0xD074, offset: 0xD074, size: 0x8, addend: 0x0, symName: __ZNSt3__122__compressed_pair_elemINS_15__tree_end_nodeIPNS_16__tree_node_baseIPvEEEELi0ELb0EEC2B7v160006ENS_16__value_init_tagE, symObjAddr: 0xF08, symBinAddr: 0x100004678, symSize: 0x2C }
  - { offsetInCU: 0xD0A8, offset: 0xD0A8, size: 0x8, addend: 0x0, symName: __ZNSt3__122__compressed_pair_elemINS_9allocatorINS_11__tree_nodeINS_12__value_typeIciEEPvEEEELi1ELb1EEC2B7v160006ENS_16__value_init_tagE, symObjAddr: 0xF34, symBinAddr: 0x1000046A4, symSize: 0x2C }
  - { offsetInCU: 0xD0DC, offset: 0xD0DC, size: 0x8, addend: 0x0, symName: __ZNSt3__115__tree_end_nodeIPNS_16__tree_node_baseIPvEEEC1B7v160006Ev, symObjAddr: 0xF60, symBinAddr: 0x1000046D0, symSize: 0x2C }
  - { offsetInCU: 0xD106, offset: 0xD106, size: 0x8, addend: 0x0, symName: __ZNSt3__115__tree_end_nodeIPNS_16__tree_node_baseIPvEEEC2B7v160006Ev, symObjAddr: 0xF8C, symBinAddr: 0x1000046FC, symSize: 0x18 }
  - { offsetInCU: 0xD130, offset: 0xD130, size: 0x8, addend: 0x0, symName: __ZNSt3__19allocatorINS_11__tree_nodeINS_12__value_typeIciEEPvEEEC2B7v160006Ev, symObjAddr: 0xFA4, symBinAddr: 0x100004714, symSize: 0x2C }
  - { offsetInCU: 0xD15A, offset: 0xD15A, size: 0x8, addend: 0x0, symName: __ZNSt3__116__non_trivial_ifILb1ENS_9allocatorINS_11__tree_nodeINS_12__value_typeIciEEPvEEEEEC2B7v160006Ev, symObjAddr: 0xFD0, symBinAddr: 0x100004740, symSize: 0x14 }
  - { offsetInCU: 0xD184, offset: 0xD184, size: 0x8, addend: 0x0, symName: __ZNSt3__117__compressed_pairImNS_19__map_value_compareIcNS_12__value_typeIciEENS_4lessIcEELb1EEEEC2B7v160006IiRKS6_EEOT_OT0_, symObjAddr: 0xFE4, symBinAddr: 0x100004754, symSize: 0x44 }
  - { offsetInCU: 0xD1DC, offset: 0xD1DC, size: 0x8, addend: 0x0, symName: __ZNSt3__122__compressed_pair_elemImLi0ELb0EEC2B7v160006IivEEOT_, symObjAddr: 0x1028, symBinAddr: 0x100004798, symSize: 0x24 }
  - { offsetInCU: 0xD21E, offset: 0xD21E, size: 0x8, addend: 0x0, symName: __ZNSt3__122__compressed_pair_elemINS_19__map_value_compareIcNS_12__value_typeIciEENS_4lessIcEELb1EEELi1ELb1EEC2B7v160006IRKS6_vEEOT_, symObjAddr: 0x104C, symBinAddr: 0x1000047BC, symSize: 0x18 }
  - { offsetInCU: 0xD260, offset: 0xD260, size: 0x8, addend: 0x0, symName: __ZNSt3__114pointer_traitsIPNS_15__tree_end_nodeIPNS_16__tree_node_baseIPvEEEEE10pointer_toB7v160006ERS6_, symObjAddr: 0x1064, symBinAddr: 0x1000047D4, symSize: 0x14 }
  - { offsetInCU: 0xD283, offset: 0xD283, size: 0x8, addend: 0x0, symName: __ZNSt3__117__compressed_pairINS_15__tree_end_nodeIPNS_16__tree_node_baseIPvEEEENS_9allocatorINS_11__tree_nodeINS_12__value_typeIciEES3_EEEEE5firstB7v160006Ev, symObjAddr: 0x1078, symBinAddr: 0x1000047E8, symSize: 0x24 }
  - { offsetInCU: 0xD2A9, offset: 0xD2A9, size: 0x8, addend: 0x0, symName: __ZNSt3__122__compressed_pair_elemINS_15__tree_end_nodeIPNS_16__tree_node_baseIPvEEEELi0ELb0EE5__getB7v160006Ev, symObjAddr: 0x109C, symBinAddr: 0x10000480C, symSize: 0x14 }
  - { offsetInCU: 0xD2CF, offset: 0xD2CF, size: 0x8, addend: 0x0, symName: __ZNKSt3__13mapIciNS_4lessIcEENS_9allocatorINS_4pairIKciEEEEE4cendB7v160006Ev, symObjAddr: 0x10B0, symBinAddr: 0x100004820, symSize: 0x2C }
  - { offsetInCU: 0xD2F5, offset: 0xD2F5, size: 0x8, addend: 0x0, symName: __ZNSt3__13mapIciNS_4lessIcEENS_9allocatorINS_4pairIKciEEEEE6insertB7v160006ENS_20__map_const_iteratorINS_21__tree_const_iteratorINS_12__value_typeIciEEPNS_11__tree_nodeISC_PvEElEEEERKS6_, symObjAddr: 0x10DC, symBinAddr: 0x10000484C, symSize: 0x50 }
  - { offsetInCU: 0xD339, offset: 0xD339, size: 0x8, addend: 0x0, symName: __ZNSt3__120__map_const_iteratorINS_21__tree_const_iteratorINS_12__value_typeIciEEPNS_11__tree_nodeIS3_PvEElEEEC1B7v160006ES8_, symObjAddr: 0x112C, symBinAddr: 0x10000489C, symSize: 0x34 }
  - { offsetInCU: 0xD372, offset: 0xD372, size: 0x8, addend: 0x0, symName: __ZNKSt3__13mapIciNS_4lessIcEENS_9allocatorINS_4pairIKciEEEEE3endB7v160006Ev, symObjAddr: 0x1160, symBinAddr: 0x1000048D0, symSize: 0x38 }
  - { offsetInCU: 0xD398, offset: 0xD398, size: 0x8, addend: 0x0, symName: __ZNKSt3__16__treeINS_12__value_typeIciEENS_19__map_value_compareIcS2_NS_4lessIcEELb1EEENS_9allocatorIS2_EEE3endB7v160006Ev, symObjAddr: 0x1198, symBinAddr: 0x100004908, symSize: 0x34 }
  - { offsetInCU: 0xD3BE, offset: 0xD3BE, size: 0x8, addend: 0x0, symName: __ZNKSt3__16__treeINS_12__value_typeIciEENS_19__map_value_compareIcS2_NS_4lessIcEELb1EEENS_9allocatorIS2_EEE10__end_nodeB7v160006Ev, symObjAddr: 0x11CC, symBinAddr: 0x10000493C, symSize: 0x2C }
  - { offsetInCU: 0xD3E4, offset: 0xD3E4, size: 0x8, addend: 0x0, symName: __ZNSt3__121__tree_const_iteratorINS_12__value_typeIciEEPNS_11__tree_nodeIS2_PvEElEC1B7v160006EPNS_15__tree_end_nodeIPNS_16__tree_node_baseIS4_EEEE, symObjAddr: 0x11F8, symBinAddr: 0x100004968, symSize: 0x34 }
  - { offsetInCU: 0xD41D, offset: 0xD41D, size: 0x8, addend: 0x0, symName: __ZNKSt3__117__compressed_pairINS_15__tree_end_nodeIPNS_16__tree_node_baseIPvEEEENS_9allocatorINS_11__tree_nodeINS_12__value_typeIciEES3_EEEEE5firstB7v160006Ev, symObjAddr: 0x122C, symBinAddr: 0x10000499C, symSize: 0x24 }
  - { offsetInCU: 0xD443, offset: 0xD443, size: 0x8, addend: 0x0, symName: __ZNKSt3__122__compressed_pair_elemINS_15__tree_end_nodeIPNS_16__tree_node_baseIPvEEEELi0ELb0EE5__getB7v160006Ev, symObjAddr: 0x1250, symBinAddr: 0x1000049C0, symSize: 0x14 }
  - { offsetInCU: 0xD469, offset: 0xD469, size: 0x8, addend: 0x0, symName: __ZNSt3__121__tree_const_iteratorINS_12__value_typeIciEEPNS_11__tree_nodeIS2_PvEElEC2B7v160006EPNS_15__tree_end_nodeIPNS_16__tree_node_baseIS4_EEEE, symObjAddr: 0x1264, symBinAddr: 0x1000049D4, symSize: 0x20 }
  - { offsetInCU: 0xD4A2, offset: 0xD4A2, size: 0x8, addend: 0x0, symName: __ZNSt3__16__treeINS_12__value_typeIciEENS_19__map_value_compareIcS2_NS_4lessIcEELb1EEENS_9allocatorIS2_EEE15__insert_uniqueB7v160006ENS_21__tree_const_iteratorIS2_PNS_11__tree_nodeIS2_PvEElEERKNS_4pairIKciEE, symObjAddr: 0x1284, symBinAddr: 0x1000049F4, symSize: 0x64 }
  - { offsetInCU: 0xD4E6, offset: 0xD4E6, size: 0x8, addend: 0x0, symName: __ZNSt3__114__map_iteratorINS_15__tree_iteratorINS_12__value_typeIciEEPNS_11__tree_nodeIS3_PvEElEEEC1B7v160006ES8_, symObjAddr: 0x12E8, symBinAddr: 0x100004A58, symSize: 0x34 }
  - { offsetInCU: 0xD51F, offset: 0xD51F, size: 0x8, addend: 0x0, symName: __ZNSt3__16__treeINS_12__value_typeIciEENS_19__map_value_compareIcS2_NS_4lessIcEELb1EEENS_9allocatorIS2_EEE30__emplace_hint_unique_key_argsIcJRKNS_4pairIKciEEEEENSB_INS_15__tree_iteratorIS2_PNS_11__tree_nodeIS2_PvEElEEbEENS_21__tree_const_iteratorIS2_SK_lEERKT_DpOT0_, symObjAddr: 0x131C, symBinAddr: 0x100004A8C, symSize: 0x104 }
  - { offsetInCU: 0xD5EB, offset: 0xD5EB, size: 0x8, addend: 0x0, symName: __ZNSt3__122__tree_key_value_typesINS_12__value_typeIciEEE9__get_keyB7v160006IKNS_4pairIKciEEEENS_9enable_ifIXsr17__is_same_uncvrefIT_S7_EE5valueERS6_E4typeERSA_, symObjAddr: 0x1420, symBinAddr: 0x100004B90, symSize: 0x14 }
  - { offsetInCU: 0xD618, offset: 0xD618, size: 0x8, addend: 0x0, symName: __ZNSt3__16__treeINS_12__value_typeIciEENS_19__map_value_compareIcS2_NS_4lessIcEELb1EEENS_9allocatorIS2_EEE12__find_equalIcEERPNS_16__tree_node_baseIPvEENS_21__tree_const_iteratorIS2_PNS_11__tree_nodeIS2_SC_EElEERPNS_15__tree_end_nodeISE_EESF_RKT_, symObjAddr: 0x1434, symBinAddr: 0x100004BA4, symSize: 0x304 }
  - { offsetInCU: 0xD6C1, offset: 0xD6C1, size: 0x8, addend: 0x0, symName: __ZNSt3__16__treeINS_12__value_typeIciEENS_19__map_value_compareIcS2_NS_4lessIcEELb1EEENS_9allocatorIS2_EEE16__construct_nodeIJRKNS_4pairIKciEEEEENS_10unique_ptrINS_11__tree_nodeIS2_PvEENS_22__tree_node_destructorINS7_ISJ_EEEEEEDpOT_, symObjAddr: 0x1738, symBinAddr: 0x100004EA8, symSize: 0x110 }
  - { offsetInCU: 0xD722, offset: 0xD722, size: 0x8, addend: 0x0, symName: __ZNSt3__16__treeINS_12__value_typeIciEENS_19__map_value_compareIcS2_NS_4lessIcEELb1EEENS_9allocatorIS2_EEE16__insert_node_atEPNS_15__tree_end_nodeIPNS_16__tree_node_baseIPvEEEERSE_SE_, symObjAddr: 0x1848, symBinAddr: 0x100004FB8, symSize: 0xCC }
  - { offsetInCU: 0xD777, offset: 0xD777, size: 0x8, addend: 0x0, symName: __ZNKSt3__110unique_ptrINS_11__tree_nodeINS_12__value_typeIciEEPvEENS_22__tree_node_destructorINS_9allocatorIS5_EEEEE3getB7v160006Ev, symObjAddr: 0x1914, symBinAddr: 0x100005084, symSize: 0x28 }
  - { offsetInCU: 0xD79D, offset: 0xD79D, size: 0x8, addend: 0x0, symName: __ZNSt3__110unique_ptrINS_11__tree_nodeINS_12__value_typeIciEEPvEENS_22__tree_node_destructorINS_9allocatorIS5_EEEEE7releaseB7v160006Ev, symObjAddr: 0x193C, symBinAddr: 0x1000050AC, symSize: 0x44 }
  - { offsetInCU: 0xD7D2, offset: 0xD7D2, size: 0x8, addend: 0x0, symName: __ZNSt3__110unique_ptrINS_11__tree_nodeINS_12__value_typeIciEEPvEENS_22__tree_node_destructorINS_9allocatorIS5_EEEEED1B7v160006Ev, symObjAddr: 0x1980, symBinAddr: 0x1000050F0, symSize: 0x2C }
  - { offsetInCU: 0xD7FC, offset: 0xD7FC, size: 0x8, addend: 0x0, symName: __ZNSt3__115__tree_iteratorINS_12__value_typeIciEEPNS_11__tree_nodeIS2_PvEElEC1B7v160006ES6_, symObjAddr: 0x19AC, symBinAddr: 0x10000511C, symSize: 0x34 }
  - { offsetInCU: 0xD840, offset: 0xD840, size: 0x8, addend: 0x0, symName: __ZNSt3__14pairINS_15__tree_iteratorINS_12__value_typeIciEEPNS_11__tree_nodeIS3_PvEElEEbEC1B7v160006IS8_RbLS5_0EEEOT_OT0_, symObjAddr: 0x19E0, symBinAddr: 0x100005150, symSize: 0x3C }
  - { offsetInCU: 0xD89E, offset: 0xD89E, size: 0x8, addend: 0x0, symName: __ZNSt3__16__treeINS_12__value_typeIciEENS_19__map_value_compareIcS2_NS_4lessIcEELb1EEENS_9allocatorIS2_EEE3endB7v160006Ev, symObjAddr: 0x1A4C, symBinAddr: 0x1000051BC, symSize: 0x34 }
  - { offsetInCU: 0xD8C4, offset: 0xD8C4, size: 0x8, addend: 0x0, symName: __ZNSt3__121__tree_const_iteratorINS_12__value_typeIciEEPNS_11__tree_nodeIS2_PvEElEC1B7v160006ENS_15__tree_iteratorIS2_S6_lEE, symObjAddr: 0x1A80, symBinAddr: 0x1000051F0, symSize: 0x34 }
  - { offsetInCU: 0xD8FD, offset: 0xD8FD, size: 0x8, addend: 0x0, symName: __ZNSt3__16__treeINS_12__value_typeIciEENS_19__map_value_compareIcS2_NS_4lessIcEELb1EEENS_9allocatorIS2_EEE10value_compB7v160006Ev, symObjAddr: 0x1AB4, symBinAddr: 0x100005224, symSize: 0x28 }
  - { offsetInCU: 0xD923, offset: 0xD923, size: 0x8, addend: 0x0, symName: __ZNKSt3__119__map_value_compareIcNS_12__value_typeIciEENS_4lessIcEELb1EEclB7v160006ERKcRKS2_, symObjAddr: 0x1ADC, symBinAddr: 0x10000524C, symSize: 0x50 }
  - { offsetInCU: 0xD967, offset: 0xD967, size: 0x8, addend: 0x0, symName: __ZNKSt3__121__tree_const_iteratorINS_12__value_typeIciEEPNS_11__tree_nodeIS2_PvEElEdeB7v160006Ev, symObjAddr: 0x1B2C, symBinAddr: 0x10000529C, symSize: 0x28 }
  - { offsetInCU: 0xD98D, offset: 0xD98D, size: 0x8, addend: 0x0, symName: __ZNSt3__16__treeINS_12__value_typeIciEENS_19__map_value_compareIcS2_NS_4lessIcEELb1EEENS_9allocatorIS2_EEE5beginB7v160006Ev, symObjAddr: 0x1B54, symBinAddr: 0x1000052C4, symSize: 0x34 }
  - { offsetInCU: 0xD9B3, offset: 0xD9B3, size: 0x8, addend: 0x0, symName: __ZNKSt3__119__map_value_compareIcNS_12__value_typeIciEENS_4lessIcEELb1EEclB7v160006ERKS2_RKc, symObjAddr: 0x1B88, symBinAddr: 0x1000052F8, symSize: 0x48 }
  - { offsetInCU: 0xD9F7, offset: 0xD9F7, size: 0x8, addend: 0x0, symName: __ZNSt3__121__tree_const_iteratorINS_12__value_typeIciEEPNS_11__tree_nodeIS2_PvEElEmmB7v160006Ev, symObjAddr: 0x1BD0, symBinAddr: 0x100005340, symSize: 0x38 }
  - { offsetInCU: 0xDA1D, offset: 0xDA1D, size: 0x8, addend: 0x0, symName: __ZNSt3__16__treeINS_12__value_typeIciEENS_19__map_value_compareIcS2_NS_4lessIcEELb1EEENS_9allocatorIS2_EEE12__find_equalIcEERPNS_16__tree_node_baseIPvEERPNS_15__tree_end_nodeISE_EERKT_, symObjAddr: 0x1C08, symBinAddr: 0x100005378, symSize: 0x184 }
  - { offsetInCU: 0xDA8A, offset: 0xDA8A, size: 0x8, addend: 0x0, symName: __ZNKSt3__121__tree_const_iteratorINS_12__value_typeIciEEPNS_11__tree_nodeIS2_PvEElE8__get_npB7v160006Ev, symObjAddr: 0x1DDC, symBinAddr: 0x10000554C, symSize: 0x18 }
  - { offsetInCU: 0xDAB0, offset: 0xDAB0, size: 0x8, addend: 0x0, symName: __ZNSt3__115__tree_iteratorINS_12__value_typeIciEEPNS_11__tree_nodeIS2_PvEElEC1B7v160006EPNS_15__tree_end_nodeIPNS_16__tree_node_baseIS4_EEEE, symObjAddr: 0x1DF4, symBinAddr: 0x100005564, symSize: 0x34 }
  - { offsetInCU: 0xDAE9, offset: 0xDAE9, size: 0x8, addend: 0x0, symName: __ZNSt3__115__tree_iteratorINS_12__value_typeIciEEPNS_11__tree_nodeIS2_PvEElEC2B7v160006EPNS_15__tree_end_nodeIPNS_16__tree_node_baseIS4_EEEE, symObjAddr: 0x1E28, symBinAddr: 0x100005598, symSize: 0x20 }
  - { offsetInCU: 0xDB22, offset: 0xDB22, size: 0x8, addend: 0x0, symName: __ZNSt3__121__tree_const_iteratorINS_12__value_typeIciEEPNS_11__tree_nodeIS2_PvEElEC2B7v160006ENS_15__tree_iteratorIS2_S6_lEE, symObjAddr: 0x1E48, symBinAddr: 0x1000055B8, symSize: 0x20 }
  - { offsetInCU: 0xDB5B, offset: 0xDB5B, size: 0x8, addend: 0x0, symName: __ZNSt3__117__compressed_pairImNS_19__map_value_compareIcNS_12__value_typeIciEENS_4lessIcEELb1EEEE6secondB7v160006Ev, symObjAddr: 0x1E68, symBinAddr: 0x1000055D8, symSize: 0x24 }
  - { offsetInCU: 0xDB81, offset: 0xDB81, size: 0x8, addend: 0x0, symName: __ZNSt3__122__compressed_pair_elemINS_19__map_value_compareIcNS_12__value_typeIciEENS_4lessIcEELb1EEELi1ELb1EE5__getB7v160006Ev, symObjAddr: 0x1E8C, symBinAddr: 0x1000055FC, symSize: 0x14 }
  - { offsetInCU: 0xDBA7, offset: 0xDBA7, size: 0x8, addend: 0x0, symName: __ZNKSt3__14lessIcEclB7v160006ERKcS3_, symObjAddr: 0x1EA0, symBinAddr: 0x100005610, symSize: 0x34 }
  - { offsetInCU: 0xDBEB, offset: 0xDBEB, size: 0x8, addend: 0x0, symName: __ZNKSt3__112__value_typeIciE11__get_valueB7v160006Ev, symObjAddr: 0x1ED4, symBinAddr: 0x100005644, symSize: 0x24 }
  - { offsetInCU: 0xDC11, offset: 0xDC11, size: 0x8, addend: 0x0, symName: __ZNKSt3__116__tree_node_baseIPvE15__parent_unsafeB7v160006Ev, symObjAddr: 0x2040, symBinAddr: 0x1000057B0, symSize: 0x18 }
  - { offsetInCU: 0xDC37, offset: 0xDC37, size: 0x8, addend: 0x0, symName: __ZNKSt3__16__treeINS_12__value_typeIciEENS_19__map_value_compareIcS2_NS_4lessIcEELb1EEENS_9allocatorIS2_EEE6__rootB7v160006Ev, symObjAddr: 0x2058, symBinAddr: 0x1000057C8, symSize: 0x28 }
  - { offsetInCU: 0xDC5D, offset: 0xDC5D, size: 0x8, addend: 0x0, symName: __ZNKSt3__16__treeINS_12__value_typeIciEENS_19__map_value_compareIcS2_NS_4lessIcEELb1EEENS_9allocatorIS2_EEE10__root_ptrEv, symObjAddr: 0x2080, symBinAddr: 0x1000057F0, symSize: 0x24 }
  - { offsetInCU: 0xDC83, offset: 0xDC83, size: 0x8, addend: 0x0, symName: __ZNSt3__121__tree_const_iteratorINS_12__value_typeIciEEPNS_11__tree_nodeIS2_PvEElEppB7v160006Ev, symObjAddr: 0x21AC, symBinAddr: 0x10000591C, symSize: 0x38 }
  - { offsetInCU: 0xDCA9, offset: 0xDCA9, size: 0x8, addend: 0x0, symName: __ZNSt3__16__treeINS_12__value_typeIciEENS_19__map_value_compareIcS2_NS_4lessIcEELb1EEENS_9allocatorIS2_EEE12__node_allocB7v160006Ev, symObjAddr: 0x22A4, symBinAddr: 0x100005A14, symSize: 0x28 }
  - { offsetInCU: 0xDCCF, offset: 0xDCCF, size: 0x8, addend: 0x0, symName: __ZNSt3__116allocator_traitsINS_9allocatorINS_11__tree_nodeINS_12__value_typeIciEEPvEEEEE8allocateB7v160006ERS7_m, symObjAddr: 0x22CC, symBinAddr: 0x100005A3C, symSize: 0x2C }
  - { offsetInCU: 0xDD02, offset: 0xDD02, size: 0x8, addend: 0x0, symName: __ZNSt3__122__tree_node_destructorINS_9allocatorINS_11__tree_nodeINS_12__value_typeIciEEPvEEEEEC1B7v160006ERS7_b, symObjAddr: 0x22F8, symBinAddr: 0x100005A68, symSize: 0x48 }
  - { offsetInCU: 0xDD50, offset: 0xDD50, size: 0x8, addend: 0x0, symName: __ZNSt3__110unique_ptrINS_11__tree_nodeINS_12__value_typeIciEEPvEENS_22__tree_node_destructorINS_9allocatorIS5_EEEEEC1B7v160006ILb1EvEEPS5_NS_16__dependent_typeINS_27__unique_ptr_deleter_sfinaeIS9_EEXT_EE20__good_rval_ref_typeE, symObjAddr: 0x2340, symBinAddr: 0x100005AB0, symSize: 0x3C }
  - { offsetInCU: 0xDDA1, offset: 0xDDA1, size: 0x8, addend: 0x0, symName: __ZNSt3__116allocator_traitsINS_9allocatorINS_11__tree_nodeINS_12__value_typeIciEEPvEEEEE9constructB7v160006INS_4pairIKciEEJRKSC_EvEEvRS7_PT_DpOT0_, symObjAddr: 0x237C, symBinAddr: 0x100005AEC, symSize: 0x34 }
  - { offsetInCU: 0xDDF8, offset: 0xDDF8, size: 0x8, addend: 0x0, symName: __ZNSt3__122__tree_key_value_typesINS_12__value_typeIciEEE9__get_ptrB7v160006ERS2_, symObjAddr: 0x23B0, symBinAddr: 0x100005B20, symSize: 0x24 }
  - { offsetInCU: 0xDE1C, offset: 0xDE1C, size: 0x8, addend: 0x0, symName: __ZNKSt3__110unique_ptrINS_11__tree_nodeINS_12__value_typeIciEEPvEENS_22__tree_node_destructorINS_9allocatorIS5_EEEEEptB7v160006Ev, symObjAddr: 0x23D4, symBinAddr: 0x100005B44, symSize: 0x28 }
  - { offsetInCU: 0xDE42, offset: 0xDE42, size: 0x8, addend: 0x0, symName: __ZNSt3__110unique_ptrINS_11__tree_nodeINS_12__value_typeIciEEPvEENS_22__tree_node_destructorINS_9allocatorIS5_EEEEE11get_deleterB7v160006Ev, symObjAddr: 0x23FC, symBinAddr: 0x100005B6C, symSize: 0x24 }
  - { offsetInCU: 0xDE68, offset: 0xDE68, size: 0x8, addend: 0x0, symName: __ZNSt3__117__compressed_pairINS_15__tree_end_nodeIPNS_16__tree_node_baseIPvEEEENS_9allocatorINS_11__tree_nodeINS_12__value_typeIciEES3_EEEEE6secondB7v160006Ev, symObjAddr: 0x2420, symBinAddr: 0x100005B90, symSize: 0x24 }
  - { offsetInCU: 0xDE8E, offset: 0xDE8E, size: 0x8, addend: 0x0, symName: __ZNSt3__122__compressed_pair_elemINS_9allocatorINS_11__tree_nodeINS_12__value_typeIciEEPvEEEELi1ELb1EE5__getB7v160006Ev, symObjAddr: 0x2444, symBinAddr: 0x100005BB4, symSize: 0x14 }
  - { offsetInCU: 0xDEB4, offset: 0xDEB4, size: 0x8, addend: 0x0, symName: __ZNSt3__19allocatorINS_11__tree_nodeINS_12__value_typeIciEEPvEEE8allocateB7v160006Em, symObjAddr: 0x2458, symBinAddr: 0x100005BC8, symSize: 0x5C }
  - { offsetInCU: 0xDEF2, offset: 0xDEF2, size: 0x8, addend: 0x0, symName: __ZNSt3__116allocator_traitsINS_9allocatorINS_11__tree_nodeINS_12__value_typeIciEEPvEEEEE8max_sizeB7v160006IS7_vEEmRKS7_, symObjAddr: 0x24B4, symBinAddr: 0x100005C24, symSize: 0x24 }
  - { offsetInCU: 0xDF20, offset: 0xDF20, size: 0x8, addend: 0x0, symName: __ZNKSt3__19allocatorINS_11__tree_nodeINS_12__value_typeIciEEPvEEE8max_sizeB7v160006Ev, symObjAddr: 0x256C, symBinAddr: 0x100005CDC, symSize: 0x18 }
  - { offsetInCU: 0xDF46, offset: 0xDF46, size: 0x8, addend: 0x0, symName: __ZNSt3__122__tree_node_destructorINS_9allocatorINS_11__tree_nodeINS_12__value_typeIciEEPvEEEEEC2B7v160006ERS7_b, symObjAddr: 0x25F4, symBinAddr: 0x100005D64, symSize: 0x38 }
  - { offsetInCU: 0xDF8E, offset: 0xDF8E, size: 0x8, addend: 0x0, symName: __ZNSt3__110unique_ptrINS_11__tree_nodeINS_12__value_typeIciEEPvEENS_22__tree_node_destructorINS_9allocatorIS5_EEEEEC2B7v160006ILb1EvEEPS5_NS_16__dependent_typeINS_27__unique_ptr_deleter_sfinaeIS9_EEXT_EE20__good_rval_ref_typeE, symObjAddr: 0x262C, symBinAddr: 0x100005D9C, symSize: 0x48 }
  - { offsetInCU: 0xDFDF, offset: 0xDFDF, size: 0x8, addend: 0x0, symName: __ZNSt3__117__compressed_pairIPNS_11__tree_nodeINS_12__value_typeIciEEPvEENS_22__tree_node_destructorINS_9allocatorIS5_EEEEEC1B7v160006IRS6_SA_EEOT_OT0_, symObjAddr: 0x2674, symBinAddr: 0x100005DE4, symSize: 0x3C }
  - { offsetInCU: 0xE037, offset: 0xE037, size: 0x8, addend: 0x0, symName: __ZNSt3__117__compressed_pairIPNS_11__tree_nodeINS_12__value_typeIciEEPvEENS_22__tree_node_destructorINS_9allocatorIS5_EEEEEC2B7v160006IRS6_SA_EEOT_OT0_, symObjAddr: 0x26B0, symBinAddr: 0x100005E20, symSize: 0x48 }
  - { offsetInCU: 0xE08F, offset: 0xE08F, size: 0x8, addend: 0x0, symName: __ZNSt3__122__compressed_pair_elemIPNS_11__tree_nodeINS_12__value_typeIciEEPvEELi0ELb0EEC2B7v160006IRS6_vEEOT_, symObjAddr: 0x26F8, symBinAddr: 0x100005E68, symSize: 0x24 }
  - { offsetInCU: 0xE0D1, offset: 0xE0D1, size: 0x8, addend: 0x0, symName: __ZNSt3__122__compressed_pair_elemINS_22__tree_node_destructorINS_9allocatorINS_11__tree_nodeINS_12__value_typeIciEEPvEEEEEELi1ELb0EEC2B7v160006IS9_vEEOT_, symObjAddr: 0x271C, symBinAddr: 0x100005E8C, symSize: 0x24 }
  - { offsetInCU: 0xE113, offset: 0xE113, size: 0x8, addend: 0x0, symName: __ZNSt3__19allocatorINS_11__tree_nodeINS_12__value_typeIciEEPvEEE9constructB7v160006INS_4pairIKciEEJRKSA_EEEvPT_DpOT0_, symObjAddr: 0x2740, symBinAddr: 0x100005EB0, symSize: 0x28 }
  - { offsetInCU: 0xE169, offset: 0xE169, size: 0x8, addend: 0x0, symName: __ZNSt3__112__value_typeIciE11__get_valueB7v160006Ev, symObjAddr: 0x2768, symBinAddr: 0x100005ED8, symSize: 0x24 }
  - { offsetInCU: 0xE18F, offset: 0xE18F, size: 0x8, addend: 0x0, symName: __ZNKSt3__117__compressed_pairIPNS_11__tree_nodeINS_12__value_typeIciEEPvEENS_22__tree_node_destructorINS_9allocatorIS5_EEEEE5firstB7v160006Ev, symObjAddr: 0x27C4, symBinAddr: 0x100005F34, symSize: 0x24 }
  - { offsetInCU: 0xE1B5, offset: 0xE1B5, size: 0x8, addend: 0x0, symName: __ZNKSt3__122__compressed_pair_elemIPNS_11__tree_nodeINS_12__value_typeIciEEPvEELi0ELb0EE5__getB7v160006Ev, symObjAddr: 0x27E8, symBinAddr: 0x100005F58, symSize: 0x14 }
  - { offsetInCU: 0xE1DB, offset: 0xE1DB, size: 0x8, addend: 0x0, symName: __ZNSt3__117__compressed_pairIPNS_11__tree_nodeINS_12__value_typeIciEEPvEENS_22__tree_node_destructorINS_9allocatorIS5_EEEEE6secondB7v160006Ev, symObjAddr: 0x27FC, symBinAddr: 0x100005F6C, symSize: 0x28 }
  - { offsetInCU: 0xE201, offset: 0xE201, size: 0x8, addend: 0x0, symName: __ZNSt3__122__compressed_pair_elemINS_22__tree_node_destructorINS_9allocatorINS_11__tree_nodeINS_12__value_typeIciEEPvEEEEEELi1ELb0EE5__getB7v160006Ev, symObjAddr: 0x2824, symBinAddr: 0x100005F94, symSize: 0x14 }
  - { offsetInCU: 0xE227, offset: 0xE227, size: 0x8, addend: 0x0, symName: __ZNSt3__16__treeINS_12__value_typeIciEENS_19__map_value_compareIcS2_NS_4lessIcEELb1EEENS_9allocatorIS2_EEE4sizeB7v160006Ev, symObjAddr: 0x2AB4, symBinAddr: 0x100006224, symSize: 0x28 }
  - { offsetInCU: 0xE24D, offset: 0xE24D, size: 0x8, addend: 0x0, symName: __ZNSt3__116__tree_node_baseIPvE12__set_parentB7v160006EPS2_, symObjAddr: 0x2C80, symBinAddr: 0x1000063F0, symSize: 0x20 }
  - { offsetInCU: 0xE282, offset: 0xE282, size: 0x8, addend: 0x0, symName: __ZNSt3__117__compressed_pairImNS_19__map_value_compareIcNS_12__value_typeIciEENS_4lessIcEELb1EEEE5firstB7v160006Ev, symObjAddr: 0x2CA0, symBinAddr: 0x100006410, symSize: 0x24 }
  - { offsetInCU: 0xE2A8, offset: 0xE2A8, size: 0x8, addend: 0x0, symName: __ZNSt3__122__compressed_pair_elemImLi0ELb0EE5__getB7v160006Ev, symObjAddr: 0x2CC4, symBinAddr: 0x100006434, symSize: 0x14 }
  - { offsetInCU: 0xE2CE, offset: 0xE2CE, size: 0x8, addend: 0x0, symName: __ZNSt3__117__compressed_pairIPNS_11__tree_nodeINS_12__value_typeIciEEPvEENS_22__tree_node_destructorINS_9allocatorIS5_EEEEE5firstB7v160006Ev, symObjAddr: 0x2CD8, symBinAddr: 0x100006448, symSize: 0x24 }
  - { offsetInCU: 0xE2F4, offset: 0xE2F4, size: 0x8, addend: 0x0, symName: __ZNSt3__122__compressed_pair_elemIPNS_11__tree_nodeINS_12__value_typeIciEEPvEELi0ELb0EE5__getB7v160006Ev, symObjAddr: 0x2CFC, symBinAddr: 0x10000646C, symSize: 0x14 }
  - { offsetInCU: 0xE31A, offset: 0xE31A, size: 0x8, addend: 0x0, symName: __ZNSt3__110unique_ptrINS_11__tree_nodeINS_12__value_typeIciEEPvEENS_22__tree_node_destructorINS_9allocatorIS5_EEEEED2B7v160006Ev, symObjAddr: 0x2D10, symBinAddr: 0x100006480, symSize: 0x30 }
  - { offsetInCU: 0xE344, offset: 0xE344, size: 0x8, addend: 0x0, symName: __ZNSt3__110unique_ptrINS_11__tree_nodeINS_12__value_typeIciEEPvEENS_22__tree_node_destructorINS_9allocatorIS5_EEEEE5resetB7v160006EPS5_, symObjAddr: 0x2D40, symBinAddr: 0x1000064B0, symSize: 0x78 }
  - { offsetInCU: 0xE388, offset: 0xE388, size: 0x8, addend: 0x0, symName: __ZNSt3__122__tree_node_destructorINS_9allocatorINS_11__tree_nodeINS_12__value_typeIciEEPvEEEEEclB7v160006EPS6_, symObjAddr: 0x2DB8, symBinAddr: 0x100006528, symSize: 0x98 }
  - { offsetInCU: 0xE3BD, offset: 0xE3BD, size: 0x8, addend: 0x0, symName: __ZNSt3__116allocator_traitsINS_9allocatorINS_11__tree_nodeINS_12__value_typeIciEEPvEEEEE7destroyB7v160006INS_4pairIKciEEvvEEvRS7_PT_, symObjAddr: 0x2E50, symBinAddr: 0x1000065C0, symSize: 0x14 }
  - { offsetInCU: 0xE3F8, offset: 0xE3F8, size: 0x8, addend: 0x0, symName: __ZNSt3__116allocator_traitsINS_9allocatorINS_11__tree_nodeINS_12__value_typeIciEEPvEEEEE10deallocateB7v160006ERS7_PS6_m, symObjAddr: 0x2E64, symBinAddr: 0x1000065D4, symSize: 0x34 }
  - { offsetInCU: 0xE43A, offset: 0xE43A, size: 0x8, addend: 0x0, symName: __ZNSt3__19allocatorINS_11__tree_nodeINS_12__value_typeIciEEPvEEE10deallocateB7v160006EPS5_m, symObjAddr: 0x2E98, symBinAddr: 0x100006608, symSize: 0x44 }
  - { offsetInCU: 0xE47C, offset: 0xE47C, size: 0x8, addend: 0x0, symName: __ZNSt3__115__tree_iteratorINS_12__value_typeIciEEPNS_11__tree_nodeIS2_PvEElEC2B7v160006ES6_, symObjAddr: 0x2FE4, symBinAddr: 0x100006754, symSize: 0x20 }
  - { offsetInCU: 0xE4B5, offset: 0xE4B5, size: 0x8, addend: 0x0, symName: __ZNSt3__14pairINS_15__tree_iteratorINS_12__value_typeIciEEPNS_11__tree_nodeIS3_PvEElEEbEC2B7v160006IS8_RbLS5_0EEEOT_OT0_, symObjAddr: 0x3004, symBinAddr: 0x100006774, symSize: 0x38 }
  - { offsetInCU: 0xE513, offset: 0xE513, size: 0x8, addend: 0x0, symName: __ZNSt3__114__map_iteratorINS_15__tree_iteratorINS_12__value_typeIciEEPNS_11__tree_nodeIS3_PvEElEEEC2B7v160006ES8_, symObjAddr: 0x303C, symBinAddr: 0x1000067AC, symSize: 0x20 }
  - { offsetInCU: 0xE54C, offset: 0xE54C, size: 0x8, addend: 0x0, symName: __ZNSt3__120__map_const_iteratorINS_21__tree_const_iteratorINS_12__value_typeIciEEPNS_11__tree_nodeIS3_PvEElEEEC2B7v160006ES8_, symObjAddr: 0x305C, symBinAddr: 0x1000067CC, symSize: 0x20 }
  - { offsetInCU: 0xE585, offset: 0xE585, size: 0x8, addend: 0x0, symName: __ZNSt3__16__treeINS_12__value_typeIciEENS_19__map_value_compareIcS2_NS_4lessIcEELb1EEENS_9allocatorIS2_EEED2Ev, symObjAddr: 0x307C, symBinAddr: 0x1000067EC, symSize: 0x38 }
  - { offsetInCU: 0xE5B1, offset: 0xE5B1, size: 0x8, addend: 0x0, symName: __ZNSt3__16__treeINS_12__value_typeIciEENS_19__map_value_compareIcS2_NS_4lessIcEELb1EEENS_9allocatorIS2_EEE7destroyEPNS_11__tree_nodeIS2_PvEE, symObjAddr: 0x30B4, symBinAddr: 0x100006824, symSize: 0xA8 }
  - { offsetInCU: 0xE5FD, offset: 0xE5FD, size: 0x8, addend: 0x0, symName: __ZNSt3__13mapIciNS_4lessIcEENS_9allocatorINS_4pairIKciEEEEED2B7v160006Ev, symObjAddr: 0x315C, symBinAddr: 0x1000068CC, symSize: 0x2C }
  - { offsetInCU: 0xE6C7, offset: 0xE6C7, size: 0x8, addend: 0x0, symName: __ZNKSt3__113basic_istreamIcNS_11char_traitsIcEEE6sentrycvbB7v160006Ev, symObjAddr: 0x3188, symBinAddr: 0x1000068F8, symSize: 0x1C }
  - { offsetInCU: 0xE6ED, offset: 0xE6ED, size: 0x8, addend: 0x0, symName: __ZNSt3__112basic_stringIcNS_11char_traitsIcEENS_9allocatorIcEEE5clearB7v160006Ev, symObjAddr: 0x31A4, symBinAddr: 0x100006914, symSize: 0x88 }
  - { offsetInCU: 0xE715, offset: 0xE715, size: 0x8, addend: 0x0, symName: __ZNKSt3__18ios_base5widthB7v160006Ev, symObjAddr: 0x322C, symBinAddr: 0x10000699C, symSize: 0x18 }
  - { offsetInCU: 0xE73D, offset: 0xE73D, size: 0x8, addend: 0x0, symName: __ZNKSt3__112basic_stringIcNS_11char_traitsIcEENS_9allocatorIcEEE8max_sizeB7v160006Ev, symObjAddr: 0x3244, symBinAddr: 0x1000069B4, symSize: 0xAC }
  - { offsetInCU: 0xE78F, offset: 0xE78F, size: 0x8, addend: 0x0, symName: __ZNSt3__114numeric_limitsIlE3maxB7v160006Ev, symObjAddr: 0x32F0, symBinAddr: 0x100006A60, symSize: 0x14 }
  - { offsetInCU: 0xE7A3, offset: 0xE7A3, size: 0x8, addend: 0x0, symName: __ZNKSt3__19basic_iosIcNS_11char_traitsIcEEE5rdbufB7v160006Ev, symObjAddr: 0x3330, symBinAddr: 0x100006AA0, symSize: 0x24 }
  - { offsetInCU: 0xE7CB, offset: 0xE7CB, size: 0x8, addend: 0x0, symName: __ZNSt3__115basic_streambufIcNS_11char_traitsIcEEE5sgetcB7v160006Ev, symObjAddr: 0x3354, symBinAddr: 0x100006AC4, symSize: 0x70 }
  - { offsetInCU: 0xE7F1, offset: 0xE7F1, size: 0x8, addend: 0x0, symName: __ZNSt3__111char_traitsIcE11eq_int_typeEii, symObjAddr: 0x33C4, symBinAddr: 0x100006B34, symSize: 0x28 }
  - { offsetInCU: 0xE822, offset: 0xE822, size: 0x8, addend: 0x0, symName: __ZNSt3__111char_traitsIcE3eofEv, symObjAddr: 0x33EC, symBinAddr: 0x100006B5C, symSize: 0x8 }
  - { offsetInCU: 0xE836, offset: 0xE836, size: 0x8, addend: 0x0, symName: __ZNSt3__111char_traitsIcE12to_char_typeEi, symObjAddr: 0x33F4, symBinAddr: 0x100006B64, symSize: 0x18 }
  - { offsetInCU: 0xE886, offset: 0xE886, size: 0x8, addend: 0x0, symName: __ZNKSt3__15ctypeIcE2isB7v160006Ejc, symObjAddr: 0x340C, symBinAddr: 0x100006B7C, symSize: 0x7C }
  - { offsetInCU: 0xE8CA, offset: 0xE8CA, size: 0x8, addend: 0x0, symName: __ZNSt3__115basic_streambufIcNS_11char_traitsIcEEE6sbumpcB7v160006Ev, symObjAddr: 0x3488, symBinAddr: 0x100006BF8, symSize: 0x78 }
  - { offsetInCU: 0xE8F0, offset: 0xE8F0, size: 0x8, addend: 0x0, symName: __ZNSt3__18ios_base5widthB7v160006El, symObjAddr: 0x3500, symBinAddr: 0x100006C70, symSize: 0x2C }
  - { offsetInCU: 0xE936, offset: 0xE936, size: 0x8, addend: 0x0, symName: __ZNSt3__18ios_base18__setstate_nothrowB7v160006Ej, symObjAddr: 0x352C, symBinAddr: 0x100006C9C, symSize: 0x64 }
  - { offsetInCU: 0xE96B, offset: 0xE96B, size: 0x8, addend: 0x0, symName: __ZNKSt3__19basic_iosIcNS_11char_traitsIcEEE10exceptionsB7v160006Ev, symObjAddr: 0x3590, symBinAddr: 0x100006D00, symSize: 0x24 }
  - { offsetInCU: 0xE991, offset: 0xE991, size: 0x8, addend: 0x0, symName: __ZNSt3__19basic_iosIcNS_11char_traitsIcEEE8setstateB7v160006Ej, symObjAddr: 0x35B4, symBinAddr: 0x100006D24, symSize: 0x2C }
  - { offsetInCU: 0xE9C6, offset: 0xE9C6, size: 0x8, addend: 0x0, symName: __ZNKSt3__112basic_stringIcNS_11char_traitsIcEENS_9allocatorIcEEE9__is_longB7v160006Ev, symObjAddr: 0x35F0, symBinAddr: 0x100006D60, symSize: 0x38 }
  - { offsetInCU: 0xE9EC, offset: 0xE9EC, size: 0x8, addend: 0x0, symName: __ZNSt3__111char_traitsIcE6assignERcRKc, symObjAddr: 0x3628, symBinAddr: 0x100006D98, symSize: 0x24 }
  - { offsetInCU: 0xEA1D, offset: 0xEA1D, size: 0x8, addend: 0x0, symName: __ZNSt3__112basic_stringIcNS_11char_traitsIcEENS_9allocatorIcEEE18__get_long_pointerB7v160006Ev, symObjAddr: 0x364C, symBinAddr: 0x100006DBC, symSize: 0x28 }
  - { offsetInCU: 0xEA43, offset: 0xEA43, size: 0x8, addend: 0x0, symName: __ZNSt3__112basic_stringIcNS_11char_traitsIcEENS_9allocatorIcEEE15__set_long_sizeB7v160006Em, symObjAddr: 0x3674, symBinAddr: 0x100006DE4, symSize: 0x38 }
  - { offsetInCU: 0xEA78, offset: 0xEA78, size: 0x8, addend: 0x0, symName: __ZNSt3__112basic_stringIcNS_11char_traitsIcEENS_9allocatorIcEEE19__get_short_pointerB7v160006Ev, symObjAddr: 0x36AC, symBinAddr: 0x100006E1C, symSize: 0x28 }
  - { offsetInCU: 0xEA9E, offset: 0xEA9E, size: 0x8, addend: 0x0, symName: __ZNSt3__112basic_stringIcNS_11char_traitsIcEENS_9allocatorIcEEE16__set_short_sizeB7v160006Em, symObjAddr: 0x36D4, symBinAddr: 0x100006E44, symSize: 0x78 }
  - { offsetInCU: 0xEAD3, offset: 0xEAD3, size: 0x8, addend: 0x0, symName: __ZNKSt3__117__compressed_pairINS_12basic_stringIcNS_11char_traitsIcEENS_9allocatorIcEEE5__repES5_E5firstB7v160006Ev, symObjAddr: 0x374C, symBinAddr: 0x100006EBC, symSize: 0x24 }
  - { offsetInCU: 0xEAF9, offset: 0xEAF9, size: 0x8, addend: 0x0, symName: __ZNKSt3__122__compressed_pair_elemINS_12basic_stringIcNS_11char_traitsIcEENS_9allocatorIcEEE5__repELi0ELb0EE5__getB7v160006Ev, symObjAddr: 0x3770, symBinAddr: 0x100006EE0, symSize: 0x14 }
  - { offsetInCU: 0xEB1F, offset: 0xEB1F, size: 0x8, addend: 0x0, symName: __ZNSt3__114pointer_traitsIPcE10pointer_toB7v160006ERc, symObjAddr: 0x3784, symBinAddr: 0x100006EF4, symSize: 0x14 }
  - { offsetInCU: 0xEB4C, offset: 0xEB4C, size: 0x8, addend: 0x0, symName: __ZNSt3__116allocator_traitsINS_9allocatorIcEEE8max_sizeB7v160006IS2_vEEmRKS2_, symObjAddr: 0x3798, symBinAddr: 0x100006F08, symSize: 0x24 }
  - { offsetInCU: 0xEB7A, offset: 0xEB7A, size: 0x8, addend: 0x0, symName: __ZNKSt3__112basic_stringIcNS_11char_traitsIcEENS_9allocatorIcEEE7__allocB7v160006Ev, symObjAddr: 0x37BC, symBinAddr: 0x100006F2C, symSize: 0x24 }
  - { offsetInCU: 0xEBA0, offset: 0xEBA0, size: 0x8, addend: 0x0, symName: __ZNSt3__114numeric_limitsImE3maxB7v160006Ev, symObjAddr: 0x37E0, symBinAddr: 0x100006F50, symSize: 0x14 }
  - { offsetInCU: 0xEBB4, offset: 0xEBB4, size: 0x8, addend: 0x0, symName: __ZNKSt3__19allocatorIcE8max_sizeB7v160006Ev, symObjAddr: 0x37F4, symBinAddr: 0x100006F64, symSize: 0x14 }
  - { offsetInCU: 0xEBDA, offset: 0xEBDA, size: 0x8, addend: 0x0, symName: __ZNKSt3__117__compressed_pairINS_12basic_stringIcNS_11char_traitsIcEENS_9allocatorIcEEE5__repES5_E6secondB7v160006Ev, symObjAddr: 0x3808, symBinAddr: 0x100006F78, symSize: 0x24 }
  - { offsetInCU: 0xEC00, offset: 0xEC00, size: 0x8, addend: 0x0, symName: __ZNKSt3__122__compressed_pair_elemINS_9allocatorIcEELi1ELb1EE5__getB7v160006Ev, symObjAddr: 0x382C, symBinAddr: 0x100006F9C, symSize: 0x14 }
  - { offsetInCU: 0xEC26, offset: 0xEC26, size: 0x8, addend: 0x0, symName: __ZNSt3__123__libcpp_numeric_limitsImLb1EE3maxB7v160006Ev, symObjAddr: 0x3840, symBinAddr: 0x100006FB0, symSize: 0x8 }
  - { offsetInCU: 0xEC3A, offset: 0xEC3A, size: 0x8, addend: 0x0, symName: __ZNSt3__123__libcpp_numeric_limitsIlLb1EE3maxB7v160006Ev, symObjAddr: 0x3848, symBinAddr: 0x100006FB8, symSize: 0x8 }
  - { offsetInCU: 0xEC4E, offset: 0xEC4E, size: 0x8, addend: 0x0, symName: __ZNKSt3__18ios_base5rdbufB7v160006Ev, symObjAddr: 0x3850, symBinAddr: 0x100006FC0, symSize: 0x18 }
  - { offsetInCU: 0xEC74, offset: 0xEC74, size: 0x8, addend: 0x0, symName: __ZNSt3__111char_traitsIcE11to_int_typeEc, symObjAddr: 0x3868, symBinAddr: 0x100006FD8, symSize: 0x14 }
  - { offsetInCU: 0xEC96, offset: 0xEC96, size: 0x8, addend: 0x0, symName: __Z7isasciii, symObjAddr: 0x387C, symBinAddr: 0x100006FEC, symSize: 0x24 }
  - { offsetInCU: 0xECC3, offset: 0xECC3, size: 0x8, addend: 0x0, symName: __ZNKSt3__18ios_base10exceptionsB7v160006Ev, symObjAddr: 0x38A0, symBinAddr: 0x100007010, symSize: 0x18 }
  - { offsetInCU: 0xECEB, offset: 0xECEB, size: 0x8, addend: 0x0, symName: __ZNSt3__18ios_base8setstateB7v160006Ej, symObjAddr: 0x38B8, symBinAddr: 0x100007028, symSize: 0x34 }
  - { offsetInCU: 0xED22, offset: 0xED22, size: 0x8, addend: 0x0, symName: __ZNKSt3__112basic_stringIcNS_11char_traitsIcEENS_9allocatorIcEEE4sizeB7v160006Ev, symObjAddr: 0x38EC, symBinAddr: 0x10000705C, symSize: 0x54 }
  - { offsetInCU: 0xED48, offset: 0xED48, size: 0x8, addend: 0x0, symName: __ZNKSt3__112basic_stringIcNS_11char_traitsIcEENS_9allocatorIcEEE15__get_long_sizeB7v160006Ev, symObjAddr: 0x3940, symBinAddr: 0x1000070B0, symSize: 0x28 }
  - { offsetInCU: 0xED6E, offset: 0xED6E, size: 0x8, addend: 0x0, symName: __ZNKSt3__112basic_stringIcNS_11char_traitsIcEENS_9allocatorIcEEE16__get_short_sizeB7v160006Ev, symObjAddr: 0x3968, symBinAddr: 0x1000070D8, symSize: 0x34 }
  - { offsetInCU: 0xED94, offset: 0xED94, size: 0x8, addend: 0x0, symName: __ZNSt3__112basic_stringIcNS_11char_traitsIcEENS_9allocatorIcEEE13__get_pointerB7v160006Ev, symObjAddr: 0x399C, symBinAddr: 0x10000710C, symSize: 0x54 }
  - { offsetInCU: 0xEDCF, offset: 0xEDCF, size: 0x8, addend: 0x0, symName: __ZNSt3__16__treeINS_12__value_typeIciEENS_19__map_value_compareIcS2_NS_4lessIcEELb1EEENS_9allocatorIS2_EEE25__emplace_unique_key_argsIcJRKNS_21piecewise_construct_tENS_5tupleIJRKcEEENSE_IJEEEEEENS_4pairINS_15__tree_iteratorIS2_PNS_11__tree_nodeIS2_PvEElEEbEERKT_DpOT0_, symObjAddr: 0x39F0, symBinAddr: 0x100007160, symSize: 0x100 }
  - { offsetInCU: 0xEEA5, offset: 0xEEA5, size: 0x8, addend: 0x0, symName: __ZNKSt3__115__tree_iteratorINS_12__value_typeIciEEPNS_11__tree_nodeIS2_PvEElEptB7v160006Ev, symObjAddr: 0x3B20, symBinAddr: 0x100007290, symSize: 0x2C }
  - { offsetInCU: 0xEECB, offset: 0xEECB, size: 0x8, addend: 0x0, symName: __ZNSt3__16__treeINS_12__value_typeIciEENS_19__map_value_compareIcS2_NS_4lessIcEELb1EEENS_9allocatorIS2_EEE16__construct_nodeIJRKNS_21piecewise_construct_tENS_5tupleIJRKcEEENSE_IJEEEEEENS_10unique_ptrINS_11__tree_nodeIS2_PvEENS_22__tree_node_destructorINS7_ISM_EEEEEEDpOT_, symObjAddr: 0x3B4C, symBinAddr: 0x1000072BC, symSize: 0x120 }
  - { offsetInCU: 0xEF54, offset: 0xEF54, size: 0x8, addend: 0x0, symName: __ZNSt3__116allocator_traitsINS_9allocatorINS_11__tree_nodeINS_12__value_typeIciEEPvEEEEE9constructB7v160006INS_4pairIKciEEJRKNS_21piecewise_construct_tENS_5tupleIJRSB_EEENSG_IJEEEEvEEvRS7_PT_DpOT0_, symObjAddr: 0x3C6C, symBinAddr: 0x1000073DC, symSize: 0x44 }
  - { offsetInCU: 0xEFD3, offset: 0xEFD3, size: 0x8, addend: 0x0, symName: __ZNSt3__19allocatorINS_11__tree_nodeINS_12__value_typeIciEEPvEEE9constructB7v160006INS_4pairIKciEEJRKNS_21piecewise_construct_tENS_5tupleIJRS9_EEENSE_IJEEEEEEvPT_DpOT0_, symObjAddr: 0x3CB0, symBinAddr: 0x100007420, symSize: 0x44 }
  - { offsetInCU: 0xF04F, offset: 0xF04F, size: 0x8, addend: 0x0, symName: __ZNSt3__14pairIKciEC1B7v160006IJRS1_EJEEENS_21piecewise_construct_tENS_5tupleIJDpT_EEENS6_IJDpT0_EEE, symObjAddr: 0x3CF4, symBinAddr: 0x100007464, symSize: 0x44 }
  - { offsetInCU: 0xF0B6, offset: 0xF0B6, size: 0x8, addend: 0x0, symName: __ZNSt3__14pairIKciEC1B7v160006IJRS1_EJEJLm0EEJEEENS_21piecewise_construct_tERNS_5tupleIJDpT_EEERNS6_IJDpT0_EEENS_15__tuple_indicesIJXspT1_EEEENSF_IJXspT2_EEEE, symObjAddr: 0x3D38, symBinAddr: 0x1000074A8, symSize: 0x3C }
  - { offsetInCU: 0xF146, offset: 0xF146, size: 0x8, addend: 0x0, symName: __ZNSt3__14pairIKciEC2B7v160006IJRS1_EJEJLm0EEJEEENS_21piecewise_construct_tERNS_5tupleIJDpT_EEERNS6_IJDpT0_EEENS_15__tuple_indicesIJXspT1_EEEENSF_IJXspT2_EEEE, symObjAddr: 0x3D74, symBinAddr: 0x1000074E4, symSize: 0x48 }
  - { offsetInCU: 0xF1D6, offset: 0xF1D6, size: 0x8, addend: 0x0, symName: __ZNSt3__112__tuple_leafILm0ERKcLb0EE3getB7v160006Ev, symObjAddr: 0x3DE0, symBinAddr: 0x100007550, symSize: 0x18 }
  - { offsetInCU: 0xF1FC, offset: 0xF1FC, size: 0x8, addend: 0x0, symName: __ZNSt3__15tupleIJRKcEEC1B7v160006INS_4_AndELi0EEES2_, symObjAddr: 0x3DF8, symBinAddr: 0x100007568, symSize: 0x34 }
  - { offsetInCU: 0xF244, offset: 0xF244, size: 0x8, addend: 0x0, symName: __ZNSt3__15tupleIJRKcEEC2B7v160006INS_4_AndELi0EEES2_, symObjAddr: 0x3E2C, symBinAddr: 0x10000759C, symSize: 0x34 }
  - { offsetInCU: 0xF28C, offset: 0xF28C, size: 0x8, addend: 0x0, symName: __ZNSt3__112__tuple_implINS_15__tuple_indicesIJLm0EEEEJRKcEEC1B7v160006IJLm0EEJS4_EJEJEJS4_EEENS1_IJXspT_EEEENS_13__tuple_typesIJDpT0_EEENS1_IJXspT1_EEEENS8_IJDpT2_EEEDpOT3_, symObjAddr: 0x3E60, symBinAddr: 0x1000075D0, symSize: 0x34 }
  - { offsetInCU: 0xF321, offset: 0xF321, size: 0x8, addend: 0x0, symName: __ZNSt3__112__tuple_implINS_15__tuple_indicesIJLm0EEEEJRKcEEC2B7v160006IJLm0EEJS4_EJEJEJS4_EEENS1_IJXspT_EEEENS_13__tuple_typesIJDpT0_EEENS1_IJXspT1_EEEENS8_IJDpT2_EEEDpOT3_, symObjAddr: 0x3E94, symBinAddr: 0x100007604, symSize: 0x34 }
  - { offsetInCU: 0xF3B6, offset: 0xF3B6, size: 0x8, addend: 0x0, symName: __ZNSt3__112__tuple_leafILm0ERKcLb0EEC2B7v160006IS2_vEEOT_, symObjAddr: 0x3EC8, symBinAddr: 0x100007638, symSize: 0x20 }
  - { offsetInCU: 0xF3F9, offset: 0xF3F9, size: 0x8, addend: 0x0, symName: __ZNSt3__114pointer_traitsIPNS_12__value_typeIciEEE10pointer_toB7v160006ERS2_, symObjAddr: 0x3EE8, symBinAddr: 0x100007658, symSize: 0x14 }
  - { offsetInCU: 0xF41C, offset: 0xF41C, size: 0x8, addend: 0x0, symName: __ZNKSt3__115__tree_iteratorINS_12__value_typeIciEEPNS_11__tree_nodeIS2_PvEElE8__get_npB7v160006Ev, symObjAddr: 0x3EFC, symBinAddr: 0x10000766C, symSize: 0x18 }
  - { offsetInCU: 0xF442, offset: 0xF442, size: 0x8, addend: 0x0, symName: __ZNSt3__112basic_stringIcNS_11char_traitsIcEENS_9allocatorIcEEE15__make_iteratorB7v160006EPc, symObjAddr: 0x3F14, symBinAddr: 0x100007684, symSize: 0x34 }
  - { offsetInCU: 0xF477, offset: 0xF477, size: 0x8, addend: 0x0, symName: __ZNSt3__111__wrap_iterIPcEC1B7v160006EPKvS1_, symObjAddr: 0x3F48, symBinAddr: 0x1000076B8, symSize: 0x3C }
  - { offsetInCU: 0xF4BD, offset: 0xF4BD, size: 0x8, addend: 0x0, symName: __ZNSt3__111__wrap_iterIPcEC2B7v160006EPKvS1_, symObjAddr: 0x3F84, symBinAddr: 0x1000076F4, symSize: 0x24 }
  - { offsetInCU: 0xF503, offset: 0xF503, size: 0x8, addend: 0x0, symName: __ZNKSt3__19basic_iosIcNS_11char_traitsIcEEE5widenB7v160006Ec, symObjAddr: 0x3FA8, symBinAddr: 0x100007718, symSize: 0x84 }
  - { offsetInCU: 0xF53A, offset: 0xF53A, size: 0x8, addend: 0x0, symName: __ZNKSt3__15ctypeIcE5widenB7v160006Ec, symObjAddr: 0x402C, symBinAddr: 0x10000779C, symSize: 0x38 }
...
